target datalayout = "e-m:e-p270:32:32-p271:32:32-p272:64:64-i64:64-i128:128-f80:128-n8:16:32:64-S128"
target triple = "x86_64-pc-linux-gnu"

%"class.std::__cxx11::basic_string" = type { %"struct.std::__cxx11::basic_string<char>::_Alloc_hider", i64, %union.anon.0 }
%"struct.std::__cxx11::basic_string<char>::_Alloc_hider" = type { ptr }
%union.anon.0 = type { i64, [8 x i8] }
%"class.std::allocator" = type { i8 }
%"class.std::filesystem::__cxx11::path" = type { %"class.std::__cxx11::basic_string", %"struct.std::filesystem::__cxx11::path::_List" }
%"struct.std::filesystem::__cxx11::path::_List" = type { %"class.std::unique_ptr" }
%"class.std::unique_ptr" = type { %"struct.std::__uniq_ptr_data" }
%"struct.std::__uniq_ptr_data" = type { %"class.std::__uniq_ptr_impl" }
%"class.std::__uniq_ptr_impl" = type { %"class.std::tuple" }
%"class.std::tuple" = type { %"struct.std::_Tuple_impl" }
%"struct.std::_Tuple_impl" = type { %"struct.std::_Head_base.5" }
%"struct.std::_Head_base.5" = type { ptr }
%struct.t_enxblock = type { i32, i32, ptr, i32 }
%struct.t_enxsubblock = type { i32, i32, ptr, ptr, ptr, ptr, ptr, ptr, i32, i32, i32, i32, i32, i32 }

@.str.57 = private unnamed_addr constant [124 x i8] c"generated/home/dtcxzyw/WorkSpace/Projects/compilers/llvm-opt-benchmark/bench/gromacs/gromacs/src/gromacs/gmxana/gmx_nmr.cpp\00", align 1
@.str.85 = private unnamed_addr constant [7 x i8] c"incons\00", align 1
@.str.127 = private unnamed_addr constant [6 x i8] c"index\00", align 1
@.str.128 = private unnamed_addr constant [31 x i8] c"Unknown datatype in t_enxblock\00", align 1

; Function Attrs: mustprogress nounwind uwtable
define linkonce_odr void @_ZNSt15__new_allocatorIcE10deallocateEPcm(ptr noundef nonnull align 1 dereferenceable(1) %0, ptr noundef %1, i64 noundef %2) #3 comdat align 2 {
  %4 = alloca ptr, align 8
  %5 = alloca ptr, align 8
  %6 = alloca i64, align 8
  store ptr %0, ptr %4, align 8, !tbaa !202
  store ptr %1, ptr %5, align 8, !tbaa !19
  store i64 %2, ptr %6, align 8, !tbaa !239
  %7 = load ptr, ptr %5, align 8, !tbaa !19
  %8 = load i64, ptr %6, align 8, !tbaa !239
  %9 = mul i64 %8, 1
  call void @_ZdlPvm(ptr noundef %7, i64 noundef %9) #20
  ret void
}

; Function Attrs: mustprogress nounwind uwtable
define linkonce_odr noundef ptr @_ZNSt19__ptr_traits_ptr_toIPKcS0_Lb0EE10pointer_toERS0_(ptr noundef nonnull align 1 dereferenceable(1) %0) #3 comdat align 2 {
  %2 = alloca ptr, align 8
  store ptr %0, ptr %2, align 8, !tbaa !19
  %3 = load ptr, ptr %2, align 8, !tbaa !19
  ret ptr %3
}

; Function Attrs: mustprogress uwtable
define linkonce_odr void @_ZNSt16allocator_traitsISaIcEE10deallocateERS0_Pcm(ptr noundef nonnull align 1 dereferenceable(1) %0, ptr noundef %1, i64 noundef %2) #0 comdat align 2 {
  %4 = alloca ptr, align 8
  %5 = alloca ptr, align 8
  %6 = alloca i64, align 8
  store ptr %0, ptr %4, align 8, !tbaa !199
  store ptr %1, ptr %5, align 8, !tbaa !19
  store i64 %2, ptr %6, align 8, !tbaa !239
  %7 = load ptr, ptr %4, align 8, !tbaa !199
  %8 = load ptr, ptr %5, align 8, !tbaa !19
  %9 = load i64, ptr %6, align 8, !tbaa !239
  call void @_ZNSt15__new_allocatorIcE10deallocateEPcm(ptr noundef nonnull align 1 dereferenceable(1) %7, ptr noundef %8, i64 noundef %9)
  ret void
}

; Function Attrs: mustprogress nounwind uwtable
define available_externally noundef nonnull align 1 dereferenceable(1) ptr @_ZNSt7__cxx1112basic_stringIcSt11char_traitsIcESaIcEE16_M_get_allocatorEv(ptr noundef nonnull align 8 dereferenceable(32) %0) #3 align 2 {
  %2 = alloca ptr, align 8
  store ptr %0, ptr %2, align 8, !tbaa !201
  %3 = load ptr, ptr %2, align 8
  %4 = getelementptr inbounds nuw %"class.std::__cxx11::basic_string", ptr %3, i32 0, i32 0
  ret ptr %4
}

; Function Attrs: mustprogress nounwind uwtable
define available_externally noundef ptr @_ZNKSt7__cxx1112basic_stringIcSt11char_traitsIcESaIcEE13_M_local_dataEv(ptr noundef nonnull align 8 dereferenceable(32) %0) #3 align 2 {
  %2 = alloca ptr, align 8
  store ptr %0, ptr %2, align 8, !tbaa !201
  %3 = load ptr, ptr %2, align 8
  %4 = getelementptr inbounds nuw %"class.std::__cxx11::basic_string", ptr %3, i32 0, i32 2
  %5 = getelementptr inbounds [16 x i8], ptr %4, i64 0, i64 0
  %6 = call noundef ptr @_ZNSt19__ptr_traits_ptr_toIPKcS0_Lb0EE10pointer_toERS0_(ptr noundef nonnull align 1 dereferenceable(1) %5) #16
  ret ptr %6
}

; Function Attrs: mustprogress nounwind uwtable
define available_externally noundef ptr @_ZNKSt7__cxx1112basic_stringIcSt11char_traitsIcESaIcEE7_M_dataEv(ptr noundef nonnull align 8 dereferenceable(32) %0) #3 align 2 {
  %2 = alloca ptr, align 8
  store ptr %0, ptr %2, align 8, !tbaa !201
  %3 = load ptr, ptr %2, align 8
  %4 = getelementptr inbounds nuw %"class.std::__cxx11::basic_string", ptr %3, i32 0, i32 0
  %5 = getelementptr inbounds nuw %"struct.std::__cxx11::basic_string<char>::_Alloc_hider", ptr %4, i32 0, i32 0
  %6 = load ptr, ptr %5, align 8, !tbaa !313
  ret ptr %6
}

; Function Attrs: mustprogress nounwind uwtable
define available_externally void @_ZNSt7__cxx1112basic_stringIcSt11char_traitsIcESaIcEE10_M_destroyEm(ptr noundef nonnull align 8 dereferenceable(32) %0, i64 noundef %1) #3 align 2 personality ptr @__gxx_personality_v0 {
  %3 = alloca ptr, align 8
  %4 = alloca i64, align 8
  store ptr %0, ptr %3, align 8, !tbaa !201
  store i64 %1, ptr %4, align 8, !tbaa !239
  %5 = load ptr, ptr %3, align 8
  %6 = invoke noundef nonnull align 1 dereferenceable(1) ptr @_ZNSt7__cxx1112basic_stringIcSt11char_traitsIcESaIcEE16_M_get_allocatorEv(ptr noundef nonnull align 8 dereferenceable(32) %5)
          to label %7 unwind label %12

7:                                                ; preds = %2
  %8 = call noundef ptr @_ZNKSt7__cxx1112basic_stringIcSt11char_traitsIcESaIcEE7_M_dataEv(ptr noundef nonnull align 8 dereferenceable(32) %5)
  %9 = load i64, ptr %4, align 8, !tbaa !239
  %10 = add i64 %9, 1
  invoke void @_ZNSt16allocator_traitsISaIcEE10deallocateERS0_Pcm(ptr noundef nonnull align 1 dereferenceable(1) %6, ptr noundef %8, i64 noundef %10)
          to label %11 unwind label %12

11:                                               ; preds = %7
  ret void

12:                                               ; preds = %7, %2
  %13 = landingpad { ptr, i32 }
          catch ptr null
  %14 = extractvalue { ptr, i32 } %13, 0
  call void @__clang_call_terminate(ptr %14) #18
  unreachable
}

; Function Attrs: mustprogress uwtable
define available_externally noundef zeroext i1 @_ZNKSt7__cxx1112basic_stringIcSt11char_traitsIcESaIcEE11_M_is_localEv(ptr noundef nonnull align 8 dereferenceable(32) %0) #0 align 2 {
  %2 = alloca i1, align 1
  %3 = alloca ptr, align 8
  store ptr %0, ptr %3, align 8, !tbaa !201
  %4 = load ptr, ptr %3, align 8
  %5 = call noundef ptr @_ZNKSt7__cxx1112basic_stringIcSt11char_traitsIcESaIcEE7_M_dataEv(ptr noundef nonnull align 8 dereferenceable(32) %4)
  %6 = call noundef ptr @_ZNKSt7__cxx1112basic_stringIcSt11char_traitsIcESaIcEE13_M_local_dataEv(ptr noundef nonnull align 8 dereferenceable(32) %4)
  %7 = icmp eq ptr %5, %6
  br i1 %7, label %8, label %14

8:                                                ; preds = %1
  %9 = getelementptr inbounds nuw %"class.std::__cxx11::basic_string", ptr %4, i32 0, i32 1
  %10 = load i64, ptr %9, align 8, !tbaa !317
  %11 = icmp ugt i64 %10, 15
  br i1 %11, label %12, label %13

12:                                               ; preds = %8
  unreachable

13:                                               ; preds = %8
  store i1 true, ptr %2, align 1
  br label %15

14:                                               ; preds = %1
  store i1 false, ptr %2, align 1
  br label %15

15:                                               ; preds = %14, %13
  %16 = load i1, ptr %2, align 1
  ret i1 %16
}

; Function Attrs: noinline noreturn nounwind uwtable
define linkonce_odr hidden void @__clang_call_terminate(ptr noundef %0) #11 comdat {
  %2 = call ptr @__cxa_begin_catch(ptr %0) #16
  call void @_ZSt9terminatev() #18
  unreachable
}

; Function Attrs: mustprogress uwtable
define available_externally void @_ZNSt7__cxx1112basic_stringIcSt11char_traitsIcESaIcEE10_M_disposeEv(ptr noundef nonnull align 8 dereferenceable(32) %0) #0 align 2 {
  %2 = alloca ptr, align 8
  store ptr %0, ptr %2, align 8, !tbaa !201
  %3 = load ptr, ptr %2, align 8
  %4 = call noundef zeroext i1 @_ZNKSt7__cxx1112basic_stringIcSt11char_traitsIcESaIcEE11_M_is_localEv(ptr noundef nonnull align 8 dereferenceable(32) %3)
  br i1 %4, label %8, label %5

5:                                                ; preds = %1
  %6 = getelementptr inbounds nuw %"class.std::__cxx11::basic_string", ptr %3, i32 0, i32 2
  %7 = load i64, ptr %6, align 8, !tbaa !182
  call void @_ZNSt7__cxx1112basic_stringIcSt11char_traitsIcESaIcEE10_M_destroyEm(ptr noundef nonnull align 8 dereferenceable(32) %3, i64 noundef %7) #16
  br label %8

8:                                                ; preds = %5, %1
  ret void
}

; Function Attrs: mustprogress nounwind uwtable
define linkonce_odr void @_ZNSt15__new_allocatorIcEC2Ev(ptr noundef nonnull align 1 dereferenceable(1) %0) unnamed_addr #3 comdat align 2 {
  %2 = alloca ptr, align 8
  store ptr %0, ptr %2, align 8, !tbaa !202
  ret void
}

; Function Attrs: mustprogress nounwind uwtable
define linkonce_odr void @_ZNSt15__new_allocatorIcED2Ev(ptr noundef nonnull align 1 dereferenceable(1) %0) unnamed_addr #3 comdat align 2 {
  %2 = alloca ptr, align 8
  store ptr %0, ptr %2, align 8, !tbaa !202
  ret void
}

; Function Attrs: mustprogress nounwind uwtable
define available_externally void @_ZNSt7__cxx1112basic_stringIcSt11char_traitsIcESaIcEED2Ev(ptr noundef nonnull align 8 dereferenceable(32) %0) unnamed_addr #3 align 2 personality ptr @__gxx_personality_v0 {
  %2 = alloca ptr, align 8
  store ptr %0, ptr %2, align 8, !tbaa !201
  %3 = load ptr, ptr %2, align 8
  invoke void @_ZNSt7__cxx1112basic_stringIcSt11char_traitsIcESaIcEE10_M_disposeEv(ptr noundef nonnull align 8 dereferenceable(32) %3)
          to label %4 unwind label %6

4:                                                ; preds = %1
  %5 = getelementptr inbounds nuw %"class.std::__cxx11::basic_string", ptr %3, i32 0, i32 0
  call void @_ZNSt15__new_allocatorIcED2Ev(ptr noundef nonnull align 8 dereferenceable(8) %5) #16
  ret void

6:                                                ; preds = %1
  %7 = landingpad { ptr, i32 }
          catch ptr null
  %8 = extractvalue { ptr, i32 } %7, 0
  call void @__clang_call_terminate(ptr %8) #18
  unreachable
}

; Function Attrs: mustprogress nounwind uwtable
define available_externally void @_ZNSaIcEC2Ev(ptr noundef nonnull align 1 dereferenceable(1) %0) unnamed_addr #3 align 2 {
  %2 = alloca ptr, align 8
  store ptr %0, ptr %2, align 8, !tbaa !199
  %3 = load ptr, ptr %2, align 8
  call void @_ZNSt15__new_allocatorIcEC2Ev(ptr noundef nonnull align 1 dereferenceable(1) %3) #16
  ret void
}

; Function Attrs: mustprogress uwtable
define internal noundef float @_ZL9blk_valueP10t_enxblockii(ptr noundef %0, i32 noundef %1, i32 noundef %2) #0 personality ptr @__gxx_personality_v0 {
  %4 = alloca float, align 4
  %5 = alloca ptr, align 8
  %6 = alloca i32, align 4
  %7 = alloca i32, align 4
  %8 = alloca %"class.std::filesystem::__cxx11::path", align 8
  %9 = alloca ptr, align 8
  %10 = alloca i32, align 4
  %11 = alloca %"class.std::__cxx11::basic_string", align 8
  %12 = alloca %"class.std::allocator", align 1
  %13 = alloca %"class.std::filesystem::__cxx11::path", align 8
  store ptr %0, ptr %5, align 8, !tbaa !21
  store i32 %1, ptr %6, align 4, !tbaa !4
  store i32 %2, ptr %7, align 4, !tbaa !4
  %14 = load i32, ptr %7, align 4, !tbaa !4
  %15 = load ptr, ptr %5, align 8, !tbaa !21
  %16 = getelementptr inbounds nuw %struct.t_enxblock, ptr %15, i32 0, i32 2
  %17 = load ptr, ptr %16, align 8, !tbaa !176
  %18 = load i32, ptr %6, align 4, !tbaa !4
  %19 = sext i32 %18 to i64
  %20 = getelementptr inbounds %struct.t_enxsubblock, ptr %17, i64 %19
  %21 = getelementptr inbounds nuw %struct.t_enxsubblock, ptr %20, i32 0, i32 0
  %22 = load i32, ptr %21, align 8, !tbaa !177
  call void @llvm.lifetime.start.p0(i64 40, ptr %8) #16
  call void @_ZNSt10filesystem7__cxx114pathC2IA124_cS1_EERKT_NS1_6formatE(ptr noundef nonnull align 8 dereferenceable(40) %8, ptr noundef nonnull align 1 dereferenceable(124) @.str.57, i8 noundef zeroext 2)
  invoke void @_Z20range_check_functioniiiPKcS0_RKNSt10filesystem7__cxx114pathEi(i32 noundef %14, i32 noundef 0, i32 noundef %22, ptr noundef null, ptr noundef @.str.127, ptr noundef nonnull align 8 dereferenceable(40) %8, i32 noundef 101)
          to label %23 unwind label %46

23:                                               ; preds = %3
  call void @_ZNSt10filesystem7__cxx114pathD2Ev(ptr noundef nonnull align 8 dereferenceable(40) %8) #16
  call void @llvm.lifetime.end.p0(i64 40, ptr %8) #16
  %24 = load ptr, ptr %5, align 8, !tbaa !21
  %25 = getelementptr inbounds nuw %struct.t_enxblock, ptr %24, i32 0, i32 2
  %26 = load ptr, ptr %25, align 8, !tbaa !176
  %27 = load i32, ptr %6, align 4, !tbaa !4
  %28 = sext i32 %27 to i64
  %29 = getelementptr inbounds %struct.t_enxsubblock, ptr %26, i64 %28
  %30 = getelementptr inbounds nuw %struct.t_enxsubblock, ptr %29, i32 0, i32 1
  %31 = load i32, ptr %30, align 4, !tbaa !303
  %32 = icmp eq i32 %31, 1
  br i1 %32, label %33, label %50

33:                                               ; preds = %23
  %34 = load ptr, ptr %5, align 8, !tbaa !21
  %35 = getelementptr inbounds nuw %struct.t_enxblock, ptr %34, i32 0, i32 2
  %36 = load ptr, ptr %35, align 8, !tbaa !176
  %37 = load i32, ptr %6, align 4, !tbaa !4
  %38 = sext i32 %37 to i64
  %39 = getelementptr inbounds %struct.t_enxsubblock, ptr %36, i64 %38
  %40 = getelementptr inbounds nuw %struct.t_enxsubblock, ptr %39, i32 0, i32 2
  %41 = load ptr, ptr %40, align 8, !tbaa !185
  %42 = load i32, ptr %7, align 4, !tbaa !4
  %43 = sext i32 %42 to i64
  %44 = getelementptr inbounds float, ptr %41, i64 %43
  %45 = load float, ptr %44, align 4, !tbaa !187
  store float %45, ptr %4, align 4
  br label %92

46:                                               ; preds = %3
  %47 = landingpad { ptr, i32 }
          cleanup
  %48 = extractvalue { ptr, i32 } %47, 0
  store ptr %48, ptr %9, align 8
  %49 = extractvalue { ptr, i32 } %47, 1
  store i32 %49, ptr %10, align 4
  call void @_ZNSt10filesystem7__cxx114pathD2Ev(ptr noundef nonnull align 8 dereferenceable(40) %8) #16
  call void @llvm.lifetime.end.p0(i64 40, ptr %8) #16
  br label %94

50:                                               ; preds = %23
  %51 = load ptr, ptr %5, align 8, !tbaa !21
  %52 = getelementptr inbounds nuw %struct.t_enxblock, ptr %51, i32 0, i32 2
  %53 = load ptr, ptr %52, align 8, !tbaa !176
  %54 = load i32, ptr %6, align 4, !tbaa !4
  %55 = sext i32 %54 to i64
  %56 = getelementptr inbounds %struct.t_enxsubblock, ptr %53, i64 %55
  %57 = getelementptr inbounds nuw %struct.t_enxsubblock, ptr %56, i32 0, i32 1
  %58 = load i32, ptr %57, align 4, !tbaa !303
  %59 = icmp eq i32 %58, 2
  br i1 %59, label %60, label %74

60:                                               ; preds = %50
  %61 = load ptr, ptr %5, align 8, !tbaa !21
  %62 = getelementptr inbounds nuw %struct.t_enxblock, ptr %61, i32 0, i32 2
  %63 = load ptr, ptr %62, align 8, !tbaa !176
  %64 = load i32, ptr %6, align 4, !tbaa !4
  %65 = sext i32 %64 to i64
  %66 = getelementptr inbounds %struct.t_enxsubblock, ptr %63, i64 %65
  %67 = getelementptr inbounds nuw %struct.t_enxsubblock, ptr %66, i32 0, i32 3
  %68 = load ptr, ptr %67, align 8, !tbaa !304
  %69 = load i32, ptr %7, align 4, !tbaa !4
  %70 = sext i32 %69 to i64
  %71 = getelementptr inbounds double, ptr %68, i64 %70
  %72 = load double, ptr %71, align 8, !tbaa !186
  %73 = fptrunc double %72 to float
  store float %73, ptr %4, align 4
  br label %92

74:                                               ; preds = %50
  call void @llvm.lifetime.start.p0(i64 32, ptr %11) #16
  call void @llvm.lifetime.start.p0(i64 1, ptr %12) #16
  call void @_ZNSaIcEC2Ev(ptr noundef nonnull align 1 dereferenceable(1) %12) #16
  invoke void @_ZNSt7__cxx1112basic_stringIcSt11char_traitsIcESaIcEEC2IS3_EEPKcRKS3_(ptr noundef nonnull align 8 dereferenceable(32) %11, ptr noundef @.str.128, ptr noundef nonnull align 1 dereferenceable(1) %12)
          to label %75 unwind label %78

75:                                               ; preds = %74
  call void @llvm.lifetime.start.p0(i64 40, ptr %13) #16
  invoke void @_ZNSt10filesystem7__cxx114pathC2IA124_cS1_EERKT_NS1_6formatE(ptr noundef nonnull align 8 dereferenceable(40) %13, ptr noundef nonnull align 1 dereferenceable(124) @.str.57, i8 noundef zeroext 2)
          to label %76 unwind label %82

76:                                               ; preds = %75
  invoke void @_Z18gmx_error_functionPKcRKNSt7__cxx1112basic_stringIcSt11char_traitsIcESaIcEEERKNSt10filesystem7__cxx114pathEi(ptr noundef @.str.85, ptr noundef nonnull align 8 dereferenceable(32) %11, ptr noundef nonnull align 8 dereferenceable(40) %13, i32 noundef 112) #17
          to label %77 unwind label %86

77:                                               ; preds = %76
  unreachable

78:                                               ; preds = %74
  %79 = landingpad { ptr, i32 }
          cleanup
  %80 = extractvalue { ptr, i32 } %79, 0
  store ptr %80, ptr %9, align 8
  %81 = extractvalue { ptr, i32 } %79, 1
  store i32 %81, ptr %10, align 4
  br label %91

82:                                               ; preds = %75
  %83 = landingpad { ptr, i32 }
          cleanup
  %84 = extractvalue { ptr, i32 } %83, 0
  store ptr %84, ptr %9, align 8
  %85 = extractvalue { ptr, i32 } %83, 1
  store i32 %85, ptr %10, align 4
  br label %90

86:                                               ; preds = %76
  %87 = landingpad { ptr, i32 }
          cleanup
  %88 = extractvalue { ptr, i32 } %87, 0
  store ptr %88, ptr %9, align 8
  %89 = extractvalue { ptr, i32 } %87, 1
  store i32 %89, ptr %10, align 4
  call void @_ZNSt10filesystem7__cxx114pathD2Ev(ptr noundef nonnull align 8 dereferenceable(40) %13) #16
  br label %90

90:                                               ; preds = %86, %82
  call void @llvm.lifetime.end.p0(i64 40, ptr %13) #16
  call void @_ZNSt7__cxx1112basic_stringIcSt11char_traitsIcESaIcEED2Ev(ptr noundef nonnull align 8 dereferenceable(32) %11) #16
  br label %91

91:                                               ; preds = %90, %78
  call void @_ZNSt15__new_allocatorIcED2Ev(ptr noundef nonnull align 1 dereferenceable(1) %12) #16
  call void @llvm.lifetime.end.p0(i64 1, ptr %12) #16
  call void @llvm.lifetime.end.p0(i64 32, ptr %11) #16
  br label %94

92:                                               ; preds = %60, %33
  %93 = load float, ptr %4, align 4
  ret float %93

94:                                               ; preds = %91, %46
  %95 = load ptr, ptr %9, align 8
  %96 = load i32, ptr %10, align 4
  %97 = insertvalue { ptr, i32 } poison, ptr %95, 0
  %98 = insertvalue { ptr, i32 } %97, i32 %96, 1
  resume { ptr, i32 } %98
}