; Function Attrs: mustprogress uwtable
define internal fastcc noundef float @_ZL9blk_valueP10t_enxblockii(ptr noundef nonnull readonly captures(none) %0, i32 noundef %1) unnamed_addr #0 personality ptr @__gxx_personality_v0 {
  %3 = alloca %"class.std::filesystem::__cxx11::path", align 8
  %4 = alloca %"class.std::__cxx11::basic_string", align 8
  %5 = alloca %"class.std::allocator", align 1
  %6 = alloca %"class.std::filesystem::__cxx11::path", align 8
  %7 = getelementptr inbounds nuw i8, ptr %0, i64 8
  %8 = load ptr, ptr %7, align 8, !tbaa !222
  %9 = load i32, ptr %8, align 8, !tbaa !223
  call void @llvm.lifetime.start.p0(i64 40, ptr nonnull %3) #20
  call void @_ZNSt10filesystem7__cxx114pathC2IA124_cS1_EERKT_NS1_6formatE(ptr noundef nonnull align 8 dereferenceable(40) %3, ptr noundef nonnull align 1 dereferenceable(124) @.str.57, i8 noundef zeroext 2)
  invoke void @_Z20range_check_functioniiiPKcS0_RKNSt10filesystem7__cxx114pathEi(i32 noundef %1, i32 noundef 0, i32 noundef %9, ptr noundef null, ptr noundef nonnull @.str.127, ptr noundef nonnull align 8 dereferenceable(40) %3, i32 noundef 101)
          to label %10 unwind label %31

10:                                               ; preds = %2
  %11 = getelementptr inbounds nuw i8, ptr %3, i64 32
  %12 = load ptr, ptr %11, align 8, !tbaa !28
  %.not.i.i.i = icmp eq ptr %12, null
  br i1 %.not.i.i.i, label %_ZNSt10filesystem7__cxx114path5_ListD2Ev.exit.i, label %13

13:                                               ; preds = %10
  call void @_ZNKSt10filesystem7__cxx114path5_List13_Impl_deleterclEPNS2_5_ImplE(ptr noundef nonnull align 8 dereferenceable(8) %11, ptr noundef nonnull %12) #20
  br label %_ZNSt10filesystem7__cxx114path5_ListD2Ev.exit.i

_ZNSt10filesystem7__cxx114path5_ListD2Ev.exit.i:  ; preds = %13, %10
  store ptr null, ptr %11, align 8, !tbaa !28
  %14 = load ptr, ptr %3, align 8, !tbaa !30
  %15 = getelementptr inbounds nuw i8, ptr %3, i64 16
  %16 = icmp eq ptr %14, %15
  br i1 %16, label %_ZNKSt7__cxx1112basic_stringIcSt11char_traitsIcESaIcEE11_M_is_localEv.exit.thread.i.i.i, label %_ZNKSt7__cxx1112basic_stringIcSt11char_traitsIcESaIcEE11_M_is_localEv.exit.i.i.i

_ZNKSt7__cxx1112basic_stringIcSt11char_traitsIcESaIcEE11_M_is_localEv.exit.thread.i.i.i: ; preds = %_ZNSt10filesystem7__cxx114path5_ListD2Ev.exit.i
  %17 = getelementptr inbounds nuw i8, ptr %3, i64 8
  %18 = load i64, ptr %17, align 8, !tbaa !12
  %19 = icmp ult i64 %18, 16
  call void @llvm.assume(i1 %19)
  br label %_ZNSt10filesystem7__cxx114pathD2Ev.exit

_ZNKSt7__cxx1112basic_stringIcSt11char_traitsIcESaIcEE11_M_is_localEv.exit.i.i.i: ; preds = %_ZNSt10filesystem7__cxx114path5_ListD2Ev.exit.i
  %20 = load i64, ptr %15, align 8, !tbaa !15
  %21 = add i64 %20, 1
  call void @_ZdlPvm(ptr noundef %14, i64 noundef %21) #22
  br label %_ZNSt10filesystem7__cxx114pathD2Ev.exit

_ZNSt10filesystem7__cxx114pathD2Ev.exit:          ; preds = %_ZNKSt7__cxx1112basic_stringIcSt11char_traitsIcESaIcEE11_M_is_localEv.exit.thread.i.i.i, %_ZNKSt7__cxx1112basic_stringIcSt11char_traitsIcESaIcEE11_M_is_localEv.exit.i.i.i
  call void @llvm.lifetime.end.p0(i64 40, ptr nonnull %3) #20
  %22 = load ptr, ptr %7, align 8, !tbaa !222
  %23 = getelementptr inbounds nuw i8, ptr %22, i64 4
  %24 = load i32, ptr %23, align 4, !tbaa !306
  switch i32 %24, label %40 [
    i32 1, label %25
    i32 2, label %33
  ]

25:                                               ; preds = %_ZNSt10filesystem7__cxx114pathD2Ev.exit
  %26 = getelementptr inbounds nuw i8, ptr %22, i64 8
  %27 = load ptr, ptr %26, align 8, !tbaa !284
  %28 = sext i32 %1 to i64
  %29 = getelementptr inbounds float, ptr %27, i64 %28
  %30 = load float, ptr %29, align 4, !tbaa !42
  br label %59

31:                                               ; preds = %2
  %32 = landingpad { ptr, i32 }
          cleanup
  call void @_ZNSt10filesystem7__cxx114pathD2Ev(ptr noundef nonnull align 8 dereferenceable(40) %3) #20
  call void @llvm.lifetime.end.p0(i64 40, ptr nonnull %3) #20
  br label %60

33:                                               ; preds = %_ZNSt10filesystem7__cxx114pathD2Ev.exit
  %34 = getelementptr inbounds nuw i8, ptr %22, i64 16
  %35 = load ptr, ptr %34, align 8, !tbaa !307
  %36 = sext i32 %1 to i64
  %37 = getelementptr inbounds double, ptr %35, i64 %36
  %38 = load double, ptr %37, align 8, !tbaa !308
  %39 = fptrunc double %38 to float
  br label %59

40:                                               ; preds = %_ZNSt10filesystem7__cxx114pathD2Ev.exit
  call void @llvm.lifetime.start.p0(i64 32, ptr nonnull %4) #20
  call void @llvm.lifetime.start.p0(i64 1, ptr nonnull %5) #20
  invoke void @_ZNSt7__cxx1112basic_stringIcSt11char_traitsIcESaIcEEC2IS3_EEPKcRKS3_(ptr noundef nonnull align 8 dereferenceable(32) %4, ptr noundef nonnull @.str.128, ptr noundef nonnull align 1 dereferenceable(1) %5)
          to label %41 unwind label %44

41:                                               ; preds = %40
  call void @llvm.lifetime.start.p0(i64 40, ptr nonnull %6) #20
  invoke void @_ZNSt10filesystem7__cxx114pathC2IA124_cS1_EERKT_NS1_6formatE(ptr noundef nonnull align 8 dereferenceable(40) %6, ptr noundef nonnull align 1 dereferenceable(124) @.str.57, i8 noundef zeroext 2)
          to label %42 unwind label %46

42:                                               ; preds = %41
  invoke void @_Z18gmx_error_functionPKcRKNSt7__cxx1112basic_stringIcSt11char_traitsIcESaIcEEERKNSt10filesystem7__cxx114pathEi(ptr noundef nonnull @.str.85, ptr noundef nonnull align 8 dereferenceable(32) %4, ptr noundef nonnull align 8 dereferenceable(40) %6, i32 noundef 112) #21
          to label %43 unwind label %48

43:                                               ; preds = %42
  unreachable

44:                                               ; preds = %40
  %45 = landingpad { ptr, i32 }
          cleanup
  br label %_ZNSt7__cxx1112basic_stringIcSt11char_traitsIcESaIcEED2Ev.exit

46:                                               ; preds = %41
  %47 = landingpad { ptr, i32 }
          cleanup
  br label %50

48:                                               ; preds = %42
  %49 = landingpad { ptr, i32 }
          cleanup
  call void @_ZNSt10filesystem7__cxx114pathD2Ev(ptr noundef nonnull align 8 dereferenceable(40) %6) #20
  br label %50

50:                                               ; preds = %48, %46
  %.pn = phi { ptr, i32 } [ %49, %48 ], [ %47, %46 ]
  call void @llvm.lifetime.end.p0(i64 40, ptr nonnull %6) #20
  %51 = load ptr, ptr %4, align 8, !tbaa !30
  %52 = getelementptr inbounds nuw i8, ptr %4, i64 16
  %53 = icmp eq ptr %51, %52
  br i1 %53, label %_ZNKSt7__cxx1112basic_stringIcSt11char_traitsIcESaIcEE11_M_is_localEv.exit.thread.i.i, label %_ZNKSt7__cxx1112basic_stringIcSt11char_traitsIcESaIcEE11_M_is_localEv.exit.i.i

_ZNKSt7__cxx1112basic_stringIcSt11char_traitsIcESaIcEE11_M_is_localEv.exit.thread.i.i: ; preds = %50
  %54 = getelementptr inbounds nuw i8, ptr %4, i64 8
  %55 = load i64, ptr %54, align 8, !tbaa !12
  %56 = icmp ult i64 %55, 16
  call void @llvm.assume(i1 %56)
  br label %_ZNSt7__cxx1112basic_stringIcSt11char_traitsIcESaIcEED2Ev.exit

_ZNKSt7__cxx1112basic_stringIcSt11char_traitsIcESaIcEE11_M_is_localEv.exit.i.i: ; preds = %50
  %57 = load i64, ptr %52, align 8, !tbaa !15
  %58 = add i64 %57, 1
  call void @_ZdlPvm(ptr noundef %51, i64 noundef %58) #22
  br label %_ZNSt7__cxx1112basic_stringIcSt11char_traitsIcESaIcEED2Ev.exit

_ZNSt7__cxx1112basic_stringIcSt11char_traitsIcESaIcEED2Ev.exit: ; preds = %_ZNKSt7__cxx1112basic_stringIcSt11char_traitsIcESaIcEE11_M_is_localEv.exit.i.i, %_ZNKSt7__cxx1112basic_stringIcSt11char_traitsIcESaIcEE11_M_is_localEv.exit.thread.i.i, %44
  %.pn.pn = phi { ptr, i32 } [ %45, %44 ], [ %.pn, %_ZNKSt7__cxx1112basic_stringIcSt11char_traitsIcESaIcEE11_M_is_localEv.exit.thread.i.i ], [ %.pn, %_ZNKSt7__cxx1112basic_stringIcSt11char_traitsIcESaIcEE11_M_is_localEv.exit.i.i ]
  call void @llvm.lifetime.end.p0(i64 1, ptr nonnull %5) #20
  call void @llvm.lifetime.end.p0(i64 32, ptr nonnull %4) #20
  br label %60

59:                                               ; preds = %33, %25
  %.018 = phi float [ %30, %25 ], [ %39, %33 ]
  ret float %.018

60:                                               ; preds = %_ZNSt7__cxx1112basic_stringIcSt11char_traitsIcESaIcEED2Ev.exit, %31
  %.pn.pn.pn = phi { ptr, i32 } [ %.pn.pn, %_ZNSt7__cxx1112basic_stringIcSt11char_traitsIcESaIcEED2Ev.exit ], [ %32, %31 ]
  resume { ptr, i32 } %.pn.pn.pn
}